target datalayout = "e-m:e-p270:32:32-p271:32:32-p272:64:64-i64:64-i128:128-f80:128-n8:16:32:64-S128"
target triple = "x86_64-pc-linux-gnu"

%struct.ev_token_bucket_cfg = type { i64, i64, i64, i64, %struct.timeval, i32 }
%struct.timeval = type { i64, i64 }

; Function Attrs: nounwind uwtable
define ptr @ev_token_bucket_cfg_new(i64 noundef %0, i64 noundef %1, i64 noundef %2, i64 noundef %3, ptr noundef %4) #0 {
  %6 = alloca ptr, align 8
  %7 = alloca i64, align 8
  %8 = alloca i64, align 8
  %9 = alloca i64, align 8
  %10 = alloca i64, align 8
  %11 = alloca ptr, align 8
  %12 = alloca ptr, align 8
  %13 = alloca %struct.timeval, align 8
  %14 = alloca i32, align 4
  %15 = alloca i32, align 4
  store i64 %0, ptr %7, align 8
  store i64 %1, ptr %8, align 8
  store i64 %2, ptr %9, align 8
  store i64 %3, ptr %10, align 8
  store ptr %4, ptr %11, align 8
  call void @llvm.lifetime.start.p0(i64 8, ptr %12) #5
  call void @llvm.lifetime.start.p0(i64 16, ptr %13) #5
  call void @llvm.lifetime.start.p0(i64 4, ptr %14) #5
  %16 = load ptr, ptr %11, align 8
  %17 = icmp ne ptr %16, null
  br i1 %17, label %21, label %18

18:                                               ; preds = %5
  %19 = getelementptr inbounds nuw %struct.timeval, ptr %13, i32 0, i32 0
  store i64 1, ptr %19, align 8
  %20 = getelementptr inbounds nuw %struct.timeval, ptr %13, i32 0, i32 1
  store i64 0, ptr %20, align 8
  store ptr %13, ptr %11, align 8
  br label %21

21:                                               ; preds = %18, %5
  %22 = load ptr, ptr %11, align 8
  %23 = getelementptr inbounds nuw %struct.timeval, ptr %22, i32 0, i32 0
  %24 = load i64, ptr %23, align 8
  %25 = icmp slt i64 %24, 0
  br i1 %25, label %31, label %26

26:                                               ; preds = %21
  %27 = load ptr, ptr %11, align 8
  %28 = getelementptr inbounds nuw %struct.timeval, ptr %27, i32 0, i32 0
  %29 = load i64, ptr %28, align 8
  %30 = icmp sgt i64 %29, 2147483
  br i1 %30, label %31, label %32

31:                                               ; preds = %26, %21
  store ptr null, ptr %6, align 8
  store i32 1, ptr %15, align 4
  br label %102

32:                                               ; preds = %26
  %33 = load ptr, ptr %11, align 8
  %34 = getelementptr inbounds nuw %struct.timeval, ptr %33, i32 0, i32 0
  %35 = load i64, ptr %34, align 8
  %36 = mul nsw i64 %35, 1000
  %37 = trunc i64 %36 to i32
  %38 = zext i32 %37 to i64
  %39 = load ptr, ptr %11, align 8
  %40 = getelementptr inbounds nuw %struct.timeval, ptr %39, i32 0, i32 1
  %41 = load i64, ptr %40, align 8
  %42 = and i64 %41, 1048575
  %43 = sdiv i64 %42, 1000
  %44 = add nsw i64 %38, %43
  %45 = trunc i64 %44 to i32
  store i32 %45, ptr %14, align 4
  %46 = load i32, ptr %14, align 4
  %47 = icmp ne i32 %46, 0
  br i1 %47, label %49, label %48

48:                                               ; preds = %32
  store ptr null, ptr %6, align 8
  store i32 1, ptr %15, align 4
  br label %102

49:                                               ; preds = %32
  %50 = load i64, ptr %7, align 8
  %51 = load i64, ptr %8, align 8
  %52 = icmp ugt i64 %50, %51
  br i1 %52, label %63, label %53

53:                                               ; preds = %49
  %54 = load i64, ptr %9, align 8
  %55 = load i64, ptr %10, align 8
  %56 = icmp ugt i64 %54, %55
  br i1 %56, label %63, label %57

57:                                               ; preds = %53
  %58 = load i64, ptr %7, align 8
  %59 = icmp ult i64 %58, 1
  br i1 %59, label %63, label %60

60:                                               ; preds = %57
  %61 = load i64, ptr %9, align 8
  %62 = icmp ult i64 %61, 1
  br i1 %62, label %63, label %64

63:                                               ; preds = %60, %57, %53, %49
  store ptr null, ptr %6, align 8
  store i32 1, ptr %15, align 4
  br label %102

64:                                               ; preds = %60
  %65 = load i64, ptr %7, align 8
  %66 = icmp ugt i64 %65, 9223372036854775807
  br i1 %66, label %76, label %67

67:                                               ; preds = %64
  %68 = load i64, ptr %9, align 8
  %69 = icmp ugt i64 %68, 9223372036854775807
  br i1 %69, label %76, label %70

70:                                               ; preds = %67
  %71 = load i64, ptr %8, align 8
  %72 = icmp ugt i64 %71, 9223372036854775807
  br i1 %72, label %76, label %73

73:                                               ; preds = %70
  %74 = load i64, ptr %10, align 8
  %75 = icmp ugt i64 %74, 9223372036854775807
  br i1 %75, label %76, label %77

76:                                               ; preds = %73, %70, %67, %64
  store ptr null, ptr %6, align 8
  store i32 1, ptr %15, align 4
  br label %102

77:                                               ; preds = %73
  %78 = call ptr @event_mm_calloc_(i64 noundef 1, i64 noundef 56)
  store ptr %78, ptr %12, align 8
  %79 = load ptr, ptr %12, align 8
  %80 = icmp ne ptr %79, null
  br i1 %80, label %82, label %81

81:                                               ; preds = %77
  store ptr null, ptr %6, align 8
  store i32 1, ptr %15, align 4
  br label %102

82:                                               ; preds = %77
  %83 = load i64, ptr %7, align 8
  %84 = load ptr, ptr %12, align 8
  %85 = getelementptr inbounds nuw %struct.ev_token_bucket_cfg, ptr %84, i32 0, i32 0
  store i64 %83, ptr %85, align 8
  %86 = load i64, ptr %9, align 8
  %87 = load ptr, ptr %12, align 8
  %88 = getelementptr inbounds nuw %struct.ev_token_bucket_cfg, ptr %87, i32 0, i32 2
  store i64 %86, ptr %88, align 8
  %89 = load i64, ptr %8, align 8
  %90 = load ptr, ptr %12, align 8
  %91 = getelementptr inbounds nuw %struct.ev_token_bucket_cfg, ptr %90, i32 0, i32 1
  store i64 %89, ptr %91, align 8
  %92 = load i64, ptr %10, align 8
  %93 = load ptr, ptr %12, align 8
  %94 = getelementptr inbounds nuw %struct.ev_token_bucket_cfg, ptr %93, i32 0, i32 3
  store i64 %92, ptr %94, align 8
  %95 = load ptr, ptr %12, align 8
  %96 = getelementptr inbounds nuw %struct.ev_token_bucket_cfg, ptr %95, i32 0, i32 4
  %97 = load ptr, ptr %11, align 8
  call void @llvm.memcpy.p0.p0.i64(ptr align 8 %96, ptr align 8 %97, i64 16, i1 false)
  %98 = load i32, ptr %14, align 4
  %99 = load ptr, ptr %12, align 8
  %100 = getelementptr inbounds nuw %struct.ev_token_bucket_cfg, ptr %99, i32 0, i32 5
  store i32 %98, ptr %100, align 8
  %101 = load ptr, ptr %12, align 8
  store ptr %101, ptr %6, align 8
  store i32 1, ptr %15, align 4
  br label %102

102:                                              ; preds = %82, %81, %76, %63, %48, %31
  call void @llvm.lifetime.end.p0(i64 4, ptr %14) #5
  call void @llvm.lifetime.end.p0(i64 16, ptr %13) #5
  call void @llvm.lifetime.end.p0(i64 8, ptr %12) #5
  %103 = load ptr, ptr %6, align 8
  ret ptr %103
}