; Function Attrs: nounwind uwtable
define ptr @ev_token_bucket_cfg_new(i64 noundef %0, i64 noundef %1, i64 noundef %2, i64 noundef %3, ptr noundef readonly captures(address_is_null) %4) local_unnamed_addr #3 {
  %6 = alloca %struct.timeval, align 8
  call void @llvm.lifetime.start.p0(i64 16, ptr nonnull %6) #10
  %.not = icmp eq ptr %4, null
  br i1 %.not, label %.thread63, label %7

.thread63:                                        ; preds = %5
  %.039.sroa.gep49 = getelementptr inbounds nuw i8, ptr %6, i64 8
  store i64 1, ptr %6, align 8
  store i64 0, ptr %.039.sroa.gep49, align 8
  br label %14

7:                                                ; preds = %5
  %.pr = load i64, ptr %4, align 8
  %or.cond68 = icmp ugt i64 %.pr, 2147483
  br i1 %or.cond68, label %33, label %._crit_edge

._crit_edge:                                      ; preds = %7
  %.039.sroa.gep48 = getelementptr inbounds nuw i8, ptr %4, i64 8
  %.pre = load i64, ptr %.039.sroa.gep48, align 8
  %8 = trunc i64 %.pre to i32
  %9 = and i32 %8, 1048568
  %10 = udiv i32 %9, 1000
  %11 = trunc nuw i64 %.pr to i32
  %12 = mul nuw nsw i32 %11, 1000
  %13 = add nuw i32 %10, %12
  br label %14

14:                                               ; preds = %._crit_edge, %.thread63
  %.0396266 = phi ptr [ %6, %.thread63 ], [ %4, %._crit_edge ]
  %15 = phi i32 [ 1000, %.thread63 ], [ %13, %._crit_edge ]
  %.not57 = icmp eq i32 %15, 0
  %16 = icmp ugt i64 %0, %1
  %or.cond = or i1 %16, %.not57
  br i1 %or.cond, label %33, label %17

17:                                               ; preds = %14
  %18 = icmp eq i64 %0, 0
  %19 = add i64 %2, -1
  %20 = icmp uge i64 %19, %3
  %or.cond3 = or i1 %18, %20
  br i1 %or.cond3, label %33, label %21

21:                                               ; preds = %17
  %22 = or i64 %1, %0
  %23 = or i64 %22, %2
  %24 = or i64 %23, %3
  %or.cond9.not = icmp sgt i64 %24, -1
  br i1 %or.cond9.not, label %25, label %33

25:                                               ; preds = %21
  %26 = tail call ptr @event_mm_calloc_(i64 noundef 1, i64 noundef 56) #10
  %.not58 = icmp eq ptr %26, null
  br i1 %.not58, label %33, label %27

27:                                               ; preds = %25
  store i64 %0, ptr %26, align 8
  %28 = getelementptr inbounds nuw i8, ptr %26, i64 16
  store i64 %2, ptr %28, align 8
  %29 = getelementptr inbounds nuw i8, ptr %26, i64 8
  store i64 %1, ptr %29, align 8
  %30 = getelementptr inbounds nuw i8, ptr %26, i64 24
  store i64 %3, ptr %30, align 8
  %31 = getelementptr inbounds nuw i8, ptr %26, i64 32
  call void @llvm.memcpy.p0.p0.i64(ptr noundef nonnull align 8 dereferenceable(16) %31, ptr noundef nonnull align 8 dereferenceable(16) %.0396266, i64 16, i1 false)
  %32 = getelementptr inbounds nuw i8, ptr %26, i64 48
  store i32 %15, ptr %32, align 8
  br label %33

33:                                               ; preds = %25, %21, %17, %14, %7, %27
  %.0 = phi ptr [ %26, %27 ], [ null, %7 ], [ null, %14 ], [ null, %17 ], [ null, %21 ], [ null, %25 ]
  call void @llvm.lifetime.end.p0(i64 16, ptr nonnull %6) #10
  ret ptr %.0
}